target datalayout = "e-m:e-p270:32:32-p271:32:32-p272:64:64-i64:64-i128:128-f80:128-n8:16:32:64-S128"
target triple = "x86_64-pc-linux-gnu"

%struct.resv_desc_msg = type { ptr, ptr, ptr, i32, i32, i64, ptr, i64, ptr, ptr, ptr, i32, ptr, i32, ptr, ptr, i32, i64, i64, ptr, ptr }

@.str.104 = private unnamed_addr constant [8 x i8] c"license\00", align 1
@.str.105 = private unnamed_addr constant [5 x i8] c"node\00", align 1
@.str.106 = private unnamed_addr constant [4 x i8] c"cpu\00", align 1
@.str.107 = private unnamed_addr constant [3 x i8] c"bb\00", align 1

; Function Attrs: inlinehint nounwind willreturn memory(read) uwtable
define available_externally i32 @atoi(ptr noundef nonnull %0) #8 {
  %2 = alloca ptr, align 8
  store ptr %0, ptr %2, align 8
  %3 = load ptr, ptr %2, align 8
  %4 = call i64 @strtol(ptr noundef %3, ptr noundef null, i32 noundef 10) #10
  %5 = trunc i64 %4 to i32
  ret i32 %5
}

; Function Attrs: nounwind uwtable
define internal i32 @_parse_tres_str(ptr noundef %0) #0 {
  %2 = alloca i32, align 4
  %3 = alloca ptr, align 8
  %4 = alloca ptr, align 8
  %5 = alloca ptr, align 8
  %6 = alloca i32, align 4
  store ptr %0, ptr %3, align 8
  call void @llvm.lifetime.start.p0(i64 8, ptr %4) #10
  call void @llvm.lifetime.start.p0(i64 8, ptr %5) #10
  %7 = load ptr, ptr %3, align 8
  %8 = getelementptr inbounds nuw %struct.resv_desc_msg, ptr %7, i32 0, i32 19
  %9 = load ptr, ptr %8, align 8
  %10 = icmp ne ptr %9, null
  br i1 %10, label %12, label %11

11:                                               ; preds = %1
  store i32 0, ptr %2, align 4
  store i32 1, ptr %6, align 4
  br label %123

12:                                               ; preds = %1
  %13 = load ptr, ptr %3, align 8
  %14 = getelementptr inbounds nuw %struct.resv_desc_msg, ptr %13, i32 0, i32 19
  %15 = load ptr, ptr %14, align 8
  %16 = call zeroext i1 @assoc_mgr_valid_tres_cnt(ptr noundef %15, i1 noundef zeroext true)
  br i1 %16, label %18, label %17

17:                                               ; preds = %12
  store i32 2115, ptr %2, align 4
  store i32 1, ptr %6, align 4
  br label %123

18:                                               ; preds = %12
  %19 = load ptr, ptr %3, align 8
  %20 = getelementptr inbounds nuw %struct.resv_desc_msg, ptr %19, i32 0, i32 19
  %21 = load ptr, ptr %20, align 8
  %22 = call ptr @slurm_get_tres_sub_string(ptr noundef %21, ptr noundef null, i32 noundef -2, i1 noundef zeroext true, i1 noundef zeroext true)
  store ptr %22, ptr %4, align 8
  %23 = load ptr, ptr %4, align 8
  %24 = icmp ne ptr %23, null
  br i1 %24, label %26, label %25

25:                                               ; preds = %18
  store i32 2115, ptr %2, align 4
  store i32 1, ptr %6, align 4
  br label %123

26:                                               ; preds = %18
  %27 = load ptr, ptr %3, align 8
  %28 = getelementptr inbounds nuw %struct.resv_desc_msg, ptr %27, i32 0, i32 19
  call void @slurm_xfree(ptr noundef %28)
  %29 = load ptr, ptr %4, align 8
  %30 = load ptr, ptr %3, align 8
  %31 = getelementptr inbounds nuw %struct.resv_desc_msg, ptr %30, i32 0, i32 19
  store ptr %29, ptr %31, align 8
  store ptr null, ptr %4, align 8
  %32 = load ptr, ptr %3, align 8
  %33 = getelementptr inbounds nuw %struct.resv_desc_msg, ptr %32, i32 0, i32 19
  %34 = load ptr, ptr %33, align 8
  %35 = call ptr @slurm_get_tres_sub_string(ptr noundef %34, ptr noundef @.str.104, i32 noundef -2, i1 noundef zeroext false, i1 noundef zeroext false)
  store ptr %35, ptr %5, align 8
  %36 = load ptr, ptr %5, align 8
  %37 = icmp ne ptr %36, null
  br i1 %37, label %38, label %48

38:                                               ; preds = %26
  %39 = load ptr, ptr %3, align 8
  %40 = getelementptr inbounds nuw %struct.resv_desc_msg, ptr %39, i32 0, i32 10
  %41 = load ptr, ptr %40, align 8
  %42 = icmp ne ptr %41, null
  br i1 %42, label %43, label %44

43:                                               ; preds = %38
  store i32 2048, ptr %2, align 4
  store i32 1, ptr %6, align 4
  br label %123

44:                                               ; preds = %38
  %45 = load ptr, ptr %5, align 8
  %46 = load ptr, ptr %3, align 8
  %47 = getelementptr inbounds nuw %struct.resv_desc_msg, ptr %46, i32 0, i32 10
  store ptr %45, ptr %47, align 8
  store ptr null, ptr %5, align 8
  br label %48

48:                                               ; preds = %44, %26
  %49 = load ptr, ptr %3, align 8
  %50 = getelementptr inbounds nuw %struct.resv_desc_msg, ptr %49, i32 0, i32 19
  %51 = load ptr, ptr %50, align 8
  %52 = call ptr @slurm_get_tres_sub_string(ptr noundef %51, ptr noundef @.str.105, i32 noundef -2, i1 noundef zeroext false, i1 noundef zeroext false)
  store ptr %52, ptr %5, align 8
  %53 = load ptr, ptr %5, align 8
  %54 = icmp ne ptr %53, null
  br i1 %54, label %55, label %67

55:                                               ; preds = %48
  %56 = load ptr, ptr %3, align 8
  %57 = getelementptr inbounds nuw %struct.resv_desc_msg, ptr %56, i32 0, i32 13
  %58 = load i32, ptr %57, align 8
  %59 = icmp ne i32 %58, -2
  br i1 %59, label %60, label %61

60:                                               ; preds = %55
  store i32 2006, ptr %2, align 4
  store i32 1, ptr %6, align 4
  br label %123

61:                                               ; preds = %55
  %62 = load ptr, ptr %5, align 8
  %63 = getelementptr inbounds i8, ptr %62, i64 1
  %64 = call i32 @atoi(ptr noundef %63) #11
  %65 = load ptr, ptr %3, align 8
  %66 = getelementptr inbounds nuw %struct.resv_desc_msg, ptr %65, i32 0, i32 13
  store i32 %64, ptr %66, align 8
  call void @slurm_xfree(ptr noundef %5)
  br label %67

67:                                               ; preds = %61, %48
  %68 = load ptr, ptr %3, align 8
  %69 = getelementptr inbounds nuw %struct.resv_desc_msg, ptr %68, i32 0, i32 19
  %70 = load ptr, ptr %69, align 8
  %71 = call ptr @slurm_get_tres_sub_string(ptr noundef %70, ptr noundef @.str.106, i32 noundef -2, i1 noundef zeroext false, i1 noundef zeroext false)
  store ptr %71, ptr %5, align 8
  %72 = load ptr, ptr %5, align 8
  %73 = icmp ne ptr %72, null
  br i1 %73, label %74, label %105

74:                                               ; preds = %67
  %75 = load ptr, ptr %3, align 8
  %76 = getelementptr inbounds nuw %struct.resv_desc_msg, ptr %75, i32 0, i32 3
  %77 = load i32, ptr %76, align 8
  %78 = icmp ne i32 %77, -2
  br i1 %78, label %79, label %80

79:                                               ; preds = %74
  store i32 2069, ptr %2, align 4
  store i32 1, ptr %6, align 4
  br label %123

80:                                               ; preds = %74
  %81 = load ptr, ptr %5, align 8
  %82 = getelementptr inbounds i8, ptr %81, i64 1
  %83 = call i32 @atoi(ptr noundef %82) #11
  %84 = load ptr, ptr %3, align 8
  %85 = getelementptr inbounds nuw %struct.resv_desc_msg, ptr %84, i32 0, i32 3
  store i32 %83, ptr %85, align 8
  %86 = load ptr, ptr %3, align 8
  %87 = getelementptr inbounds nuw %struct.resv_desc_msg, ptr %86, i32 0, i32 7
  %88 = load i64, ptr %87, align 8
  %89 = and i64 %88, 274877906944
  %90 = icmp ne i64 %89, 0
  br i1 %90, label %91, label %104

91:                                               ; preds = %80
  %92 = load ptr, ptr %3, align 8
  %93 = getelementptr inbounds nuw %struct.resv_desc_msg, ptr %92, i32 0, i32 13
  %94 = load i32, ptr %93, align 8
  %95 = icmp ne i32 %94, -2
  br i1 %95, label %96, label %104

96:                                               ; preds = %91
  %97 = load ptr, ptr %3, align 8
  %98 = getelementptr inbounds nuw %struct.resv_desc_msg, ptr %97, i32 0, i32 13
  %99 = load i32, ptr %98, align 8
  %100 = load ptr, ptr %3, align 8
  %101 = getelementptr inbounds nuw %struct.resv_desc_msg, ptr %100, i32 0, i32 3
  %102 = load i32, ptr %101, align 8
  %103 = mul i32 %102, %99
  store i32 %103, ptr %101, align 8
  br label %104

104:                                              ; preds = %96, %91, %80
  call void @slurm_xfree(ptr noundef %5)
  br label %105

105:                                              ; preds = %104, %67
  %106 = load ptr, ptr %3, align 8
  %107 = getelementptr inbounds nuw %struct.resv_desc_msg, ptr %106, i32 0, i32 19
  %108 = load ptr, ptr %107, align 8
  %109 = call ptr @slurm_get_tres_sub_string(ptr noundef %108, ptr noundef @.str.107, i32 noundef -2, i1 noundef zeroext false, i1 noundef zeroext false)
  store ptr %109, ptr %5, align 8
  %110 = load ptr, ptr %5, align 8
  %111 = icmp ne ptr %110, null
  br i1 %111, label %112, label %122

112:                                              ; preds = %105
  %113 = load ptr, ptr %3, align 8
  %114 = getelementptr inbounds nuw %struct.resv_desc_msg, ptr %113, i32 0, i32 1
  %115 = load ptr, ptr %114, align 8
  %116 = icmp ne ptr %115, null
  br i1 %116, label %117, label %118

117:                                              ; preds = %112
  store i32 2094, ptr %2, align 4
  store i32 1, ptr %6, align 4
  br label %123

118:                                              ; preds = %112
  %119 = load ptr, ptr %5, align 8
  %120 = load ptr, ptr %3, align 8
  %121 = getelementptr inbounds nuw %struct.resv_desc_msg, ptr %120, i32 0, i32 1
  store ptr %119, ptr %121, align 8
  store ptr null, ptr %5, align 8
  br label %122

122:                                              ; preds = %118, %105
  store i32 0, ptr %2, align 4
  store i32 1, ptr %6, align 4
  br label %123

123:                                              ; preds = %122, %117, %79, %60, %43, %25, %17, %11
  call void @llvm.lifetime.end.p0(i64 8, ptr %5) #10
  call void @llvm.lifetime.end.p0(i64 8, ptr %4) #10
  %124 = load i32, ptr %2, align 4
  ret i32 %124
}