; Function Attrs: nounwind uwtable
define internal fastcc range(i32 0, 2116) i32 @_parse_tres_str(ptr noundef %0) unnamed_addr #0 {
  %2 = alloca ptr, align 8
  call void @llvm.lifetime.start.p0(i64 8, ptr nonnull %2) #19
  %3 = getelementptr inbounds nuw i8, ptr %0, i64 144
  %4 = load ptr, ptr %3, align 8
  %.not = icmp eq ptr %4, null
  br i1 %.not, label %52, label %5

5:                                                ; preds = %1
  %6 = tail call zeroext i1 @assoc_mgr_valid_tres_cnt(ptr noundef nonnull %4, i1 noundef zeroext true) #19
  br i1 %6, label %7, label %52

7:                                                ; preds = %5
  %8 = load ptr, ptr %3, align 8
  %9 = tail call ptr @slurm_get_tres_sub_string(ptr noundef %8, ptr noundef null, i32 noundef -2, i1 noundef zeroext true, i1 noundef zeroext true) #19
  %.not30 = icmp eq ptr %9, null
  br i1 %.not30, label %52, label %10

10:                                               ; preds = %7
  tail call void @slurm_xfree(ptr noundef nonnull %3) #19
  store ptr %9, ptr %3, align 8
  %11 = tail call ptr @slurm_get_tres_sub_string(ptr noundef nonnull %9, ptr noundef nonnull @.str.104, i32 noundef -2, i1 noundef zeroext false, i1 noundef zeroext false) #19
  %.not31 = icmp eq ptr %11, null
  br i1 %.not31, label %16, label %12

12:                                               ; preds = %10
  %13 = getelementptr inbounds nuw i8, ptr %0, i64 72
  %14 = load ptr, ptr %13, align 8
  %.not32 = icmp eq ptr %14, null
  br i1 %.not32, label %15, label %52

15:                                               ; preds = %12
  store ptr %11, ptr %13, align 8
  br label %16

16:                                               ; preds = %15, %10
  %17 = load ptr, ptr %3, align 8
  %18 = tail call ptr @slurm_get_tres_sub_string(ptr noundef %17, ptr noundef nonnull @.str.105, i32 noundef -2, i1 noundef zeroext false, i1 noundef zeroext false) #19
  store ptr %18, ptr %2, align 8
  %.not33 = icmp eq ptr %18, null
  br i1 %.not33, label %26, label %19

19:                                               ; preds = %16
  %20 = getelementptr inbounds nuw i8, ptr %0, i64 96
  %21 = load i32, ptr %20, align 8
  %.not34 = icmp eq i32 %21, -2
  br i1 %.not34, label %22, label %52

22:                                               ; preds = %19
  %23 = getelementptr inbounds nuw i8, ptr %18, i64 1
  %24 = tail call i64 @strtol(ptr noundef nonnull captures(none) %23, ptr noundef null, i32 noundef 10) #19
  %25 = trunc i64 %24 to i32
  store i32 %25, ptr %20, align 8
  call void @slurm_xfree(ptr noundef nonnull %2) #19
  br label %26

26:                                               ; preds = %22, %16
  %27 = load ptr, ptr %3, align 8
  %28 = call ptr @slurm_get_tres_sub_string(ptr noundef %27, ptr noundef nonnull @.str.106, i32 noundef -2, i1 noundef zeroext false, i1 noundef zeroext false) #19
  store ptr %28, ptr %2, align 8
  %.not35 = icmp eq ptr %28, null
  br i1 %.not35, label %45, label %29

29:                                               ; preds = %26
  %30 = getelementptr inbounds nuw i8, ptr %0, i64 24
  %31 = load i32, ptr %30, align 8
  %.not36 = icmp eq i32 %31, -2
  br i1 %.not36, label %32, label %52

32:                                               ; preds = %29
  %33 = getelementptr inbounds nuw i8, ptr %28, i64 1
  %34 = call i64 @strtol(ptr noundef nonnull captures(none) %33, ptr noundef null, i32 noundef 10) #19
  %35 = trunc i64 %34 to i32
  store i32 %35, ptr %30, align 8
  %36 = getelementptr inbounds nuw i8, ptr %0, i64 48
  %37 = load i64, ptr %36, align 8
  %38 = and i64 %37, 274877906944
  %.not37 = icmp eq i64 %38, 0
  br i1 %.not37, label %44, label %39

39:                                               ; preds = %32
  %40 = getelementptr inbounds nuw i8, ptr %0, i64 96
  %41 = load i32, ptr %40, align 8
  %.not38 = icmp eq i32 %41, -2
  br i1 %.not38, label %44, label %42

42:                                               ; preds = %39
  %43 = mul i32 %41, %35
  store i32 %43, ptr %30, align 8
  br label %44

44:                                               ; preds = %42, %39, %32
  call void @slurm_xfree(ptr noundef nonnull %2) #19
  br label %45

45:                                               ; preds = %44, %26
  %46 = load ptr, ptr %3, align 8
  %47 = call ptr @slurm_get_tres_sub_string(ptr noundef %46, ptr noundef nonnull @.str.107, i32 noundef -2, i1 noundef zeroext false, i1 noundef zeroext false) #19
  %.not39 = icmp eq ptr %47, null
  br i1 %.not39, label %52, label %48

48:                                               ; preds = %45
  %49 = getelementptr inbounds nuw i8, ptr %0, i64 8
  %50 = load ptr, ptr %49, align 8
  %.not40 = icmp eq ptr %50, null
  br i1 %.not40, label %51, label %52

51:                                               ; preds = %48
  store ptr %47, ptr %49, align 8
  br label %52

52:                                               ; preds = %45, %51, %48, %29, %19, %12, %7, %5, %1
  %.0 = phi i32 [ 0, %1 ], [ 2115, %5 ], [ 2115, %7 ], [ 2048, %12 ], [ 2006, %19 ], [ 2069, %29 ], [ 2094, %48 ], [ 0, %51 ], [ 0, %45 ]
  call void @llvm.lifetime.end.p0(i64 8, ptr nonnull %2) #19
  ret i32 %.0
}